; Function Attrs: nounwind uwtable
define internal noundef i32 @mxf_write_h264_desc(ptr noundef readonly captures(none) %0, ptr noundef readonly captures(none) %1) #0 {
  %3 = getelementptr inbounds nuw i8, ptr %1, i64 24
  %4 = load ptr, ptr %3, align 8, !tbaa !33
  %5 = getelementptr inbounds nuw i8, ptr %4, i64 124
  %6 = load i32, ptr %5, align 4, !tbaa !93
  %.not = icmp eq i32 %6, 0
  br i1 %.not, label %9, label %7

7:                                                ; preds = %2
  %8 = tail call i32 @mxf_write_mpegvideo_desc(ptr noundef %0, ptr noundef nonnull %1)
  br label %19

9:                                                ; preds = %2
  %10 = tail call fastcc i64 @mxf_write_cdci_common(ptr noundef %0, ptr noundef nonnull %1, ptr noundef nonnull @mxf_cdci_descriptor_key)
  %11 = getelementptr inbounds nuw i8, ptr %0, i64 32
  %12 = load ptr, ptr %11, align 8, !tbaa !24
  %13 = tail call i64 @avio_seek(ptr noundef %12, i64 noundef 0, i32 noundef 1) #14
  %14 = sub nsw i64 %13, %10
  %15 = trunc i64 %14 to i32
  %16 = add nsw i64 %10, -4
  %17 = tail call i64 @avio_seek(ptr noundef %12, i64 noundef %16, i32 noundef 0) #14
  tail call void @avio_w8(ptr noundef %12, i32 noundef 131) #14
  tail call void @avio_wb24(ptr noundef %12, i32 noundef %15) #14
  %18 = tail call i64 @avio_seek(ptr noundef %12, i64 noundef %13, i32 noundef 0) #14
  tail call fastcc void @mxf_write_avc_subdesc(ptr noundef %0, ptr noundef nonnull %1)
  br label %19

19:                                               ; preds = %9, %7
  ret i32 0
}